target datalayout = "e-m:e-p270:32:32-p271:32:32-p272:64:64-i64:64-i128:128-f80:128-n8:16:32:64-S128"
target triple = "x86_64-pc-linux-gnu"

@.str.49 = private unnamed_addr constant [2 x i8] c"U\00", align 1
@PyExc_OSError = external global ptr, align 8
@.str.50 = private unnamed_addr constant [29 x i8] c"failed to make path absolute\00", align 1

; Function Attrs: nounwind uwtable
define internal ptr @getpath_abspath(ptr noundef %0, ptr noundef %1) #0 {
  %3 = alloca ptr, align 8
  %4 = alloca ptr, align 8
  %5 = alloca ptr, align 8
  %6 = alloca ptr, align 8
  %7 = alloca ptr, align 8
  %8 = alloca ptr, align 8
  %9 = alloca i32, align 4
  %10 = alloca i64, align 8
  %11 = alloca ptr, align 8
  store ptr %0, ptr %4, align 8, !tbaa !16
  store ptr %1, ptr %5, align 8, !tbaa !16
  call void @llvm.lifetime.start.p0(i64 8, ptr %6) #10
  store ptr null, ptr %6, align 8, !tbaa !16
  call void @llvm.lifetime.start.p0(i64 8, ptr %7) #10
  call void @llvm.lifetime.start.p0(i64 8, ptr %8) #10
  %12 = load ptr, ptr %5, align 8, !tbaa !16
  %13 = call i32 (ptr, ptr, ...) @PyArg_ParseTuple(ptr noundef %12, ptr noundef @.str.49, ptr noundef %7)
  %14 = icmp ne i32 %13, 0
  br i1 %14, label %16, label %15

15:                                               ; preds = %2
  store ptr null, ptr %3, align 8
  store i32 1, ptr %9, align 4
  br label %39

16:                                               ; preds = %2
  call void @llvm.lifetime.start.p0(i64 8, ptr %10) #10
  %17 = load ptr, ptr %7, align 8, !tbaa !16
  %18 = call ptr @PyUnicode_AsWideCharString(ptr noundef %17, ptr noundef %10)
  store ptr %18, ptr %8, align 8, !tbaa !29
  %19 = load ptr, ptr %8, align 8, !tbaa !29
  %20 = icmp ne ptr %19, null
  br i1 %20, label %21, label %37

21:                                               ; preds = %16
  call void @llvm.lifetime.start.p0(i64 8, ptr %11) #10
  %22 = load ptr, ptr %8, align 8, !tbaa !29
  %23 = call ptr @_Py_normpath(ptr noundef %22, i64 noundef -1)
  %24 = call i32 @_Py_abspath(ptr noundef %23, ptr noundef %11)
  %25 = icmp eq i32 %24, 0
  br i1 %25, label %26, label %33

26:                                               ; preds = %21
  %27 = load ptr, ptr %11, align 8, !tbaa !29
  %28 = icmp ne ptr %27, null
  br i1 %28, label %29, label %33

29:                                               ; preds = %26
  %30 = load ptr, ptr %11, align 8, !tbaa !29
  %31 = call ptr @PyUnicode_FromWideChar(ptr noundef %30, i64 noundef -1)
  store ptr %31, ptr %6, align 8, !tbaa !16
  %32 = load ptr, ptr %11, align 8, !tbaa !29
  call void @PyMem_RawFree(ptr noundef %32)
  br label %35

33:                                               ; preds = %26, %21
  %34 = load ptr, ptr @PyExc_OSError, align 8, !tbaa !16
  call void @PyErr_SetString(ptr noundef %34, ptr noundef @.str.50)
  br label %35

35:                                               ; preds = %33, %29
  %36 = load ptr, ptr %8, align 8, !tbaa !29
  call void @PyMem_Free(ptr noundef %36)
  call void @llvm.lifetime.end.p0(i64 8, ptr %11) #10
  br label %37

37:                                               ; preds = %35, %16
  %38 = load ptr, ptr %6, align 8, !tbaa !16
  store ptr %38, ptr %3, align 8
  store i32 1, ptr %9, align 4
  call void @llvm.lifetime.end.p0(i64 8, ptr %10) #10
  br label %39

39:                                               ; preds = %37, %15
  call void @llvm.lifetime.end.p0(i64 8, ptr %8) #10
  call void @llvm.lifetime.end.p0(i64 8, ptr %7) #10
  call void @llvm.lifetime.end.p0(i64 8, ptr %6) #10
  %40 = load ptr, ptr %3, align 8
  ret ptr %40
}