; Function Attrs: nounwind uwtable
define internal ptr @getpath_abspath(ptr readnone captures(none) %0, ptr noundef %1) #0 {
  %3 = alloca ptr, align 8
  %4 = alloca i64, align 8
  %5 = alloca ptr, align 8
  call void @llvm.lifetime.start.p0(i64 8, ptr nonnull %3) #13
  %6 = call i32 (ptr, ptr, ...) @PyArg_ParseTuple(ptr noundef %1, ptr noundef nonnull @.str.49, ptr noundef nonnull %3) #13
  %.not = icmp eq i32 %6, 0
  br i1 %.not, label %23, label %7

7:                                                ; preds = %2
  call void @llvm.lifetime.start.p0(i64 8, ptr nonnull %4) #13
  %8 = load ptr, ptr %3, align 8, !tbaa !31
  %9 = call ptr @PyUnicode_AsWideCharString(ptr noundef %8, ptr noundef nonnull %4) #13
  %.not10 = icmp eq ptr %9, null
  br i1 %.not10, label %22, label %10

10:                                               ; preds = %7
  call void @llvm.lifetime.start.p0(i64 8, ptr nonnull %5) #13
  %11 = call ptr @_Py_normpath(ptr noundef nonnull %9, i64 noundef -1) #13
  %12 = call i32 @_Py_abspath(ptr noundef %11, ptr noundef nonnull %5) #13
  %13 = icmp eq i32 %12, 0
  %14 = load ptr, ptr %5, align 8
  %15 = icmp ne ptr %14, null
  %or.cond = select i1 %13, i1 %15, i1 false
  br i1 %or.cond, label %16, label %19

16:                                               ; preds = %10
  %17 = call ptr @PyUnicode_FromWideChar(ptr noundef nonnull %14, i64 noundef -1) #13
  %18 = load ptr, ptr %5, align 8, !tbaa !33
  call void @PyMem_RawFree(ptr noundef %18) #13
  br label %21

19:                                               ; preds = %10
  %20 = load ptr, ptr @PyExc_OSError, align 8, !tbaa !31
  call void @PyErr_SetString(ptr noundef %20, ptr noundef nonnull @.str.50) #13
  br label %21

21:                                               ; preds = %19, %16
  %.1 = phi ptr [ %17, %16 ], [ null, %19 ]
  call void @PyMem_Free(ptr noundef nonnull %9) #13
  call void @llvm.lifetime.end.p0(i64 8, ptr nonnull %5) #13
  br label %22

22:                                               ; preds = %21, %7
  %.07 = phi ptr [ %.1, %21 ], [ null, %7 ]
  call void @llvm.lifetime.end.p0(i64 8, ptr nonnull %4) #13
  br label %23

23:                                               ; preds = %2, %22
  %.0 = phi ptr [ %.07, %22 ], [ null, %2 ]
  call void @llvm.lifetime.end.p0(i64 8, ptr nonnull %3) #13
  ret ptr %.0
}